; ModuleID = '22/583.c'
source_filename = "22/583.c"
target datalayout = "e-m:e-p270:32:32-p271:32:32-p272:64:64-i64:64-f80:128-n8:16:32:64-S128"
target triple = "x86_64-pc-linux-gnu"

@.str = private unnamed_addr constant [3 x i8] c"%d\00", align 1
@.str.1 = private unnamed_addr constant [3 x i8] c"%c\00", align 1
@.str.2 = private unnamed_addr constant [3 x i8] c"No\00", align 1

; Function Attrs: noinline nounwind uwtable
define dso_local i32 @main() #0 {
  %1 = alloca i32, align 4
  %2 = alloca i32, align 4
  %3 = alloca i32, align 4
  %4 = alloca [300 x i32], align 16
  %5 = alloca i32, align 4
  %6 = alloca i32, align 4
  %7 = alloca i8, align 1
  store i32 0, i32* %1, align 4
  store i32 0, i32* %2, align 4
  store i32 0, i32* %3, align 4
  store i32 0, i32* %5, align 4
  store i32 0, i32* %6, align 4
  br label %8

8:                                                ; preds = %0, %20
  %9 = load i32, i32* %2, align 4
  %10 = sext i32 %9 to i64
  %11 = getelementptr inbounds [300 x i32], [300 x i32]* %4, i64 0, i64 %10
  %12 = call i32 (i8*, ...) @__isoc99_scanf(i8* getelementptr inbounds ([3 x i8], [3 x i8]* @.str, i64 0, i64 0), i32* %11)
  %13 = call i32 (i8*, ...) @__isoc99_scanf(i8* getelementptr inbounds ([3 x i8], [3 x i8]* @.str.1, i64 0, i64 0), i8* %7)
  %14 = load i32, i32* %3, align 4
  %15 = add nsw i32 %14, 1
  store i32 %15, i32* %3, align 4
  %16 = load i8, i8* %7, align 1
  %17 = sext i8 %16 to i32
  %18 = icmp eq i32 %17, 10
  br i1 %18, label %19, label %20

19:                                               ; preds = %8
  br label %23

20:                                               ; preds = %8
  %21 = load i32, i32* %2, align 4
  %22 = add nsw i32 %21, 1
  store i32 %22, i32* %2, align 4
  br label %8

23:                                               ; preds = %19
  store i32 0, i32* %2, align 4
  br label %24

24:                                               ; preds = %62, %23
  %25 = load i32, i32* %2, align 4
  %26 = load i32, i32* %3, align 4
  %27 = icmp slt i32 %25, %26
  br i1 %27, label %28, label %65

28:                                               ; preds = %24
  %29 = load i32, i32* %5, align 4
  %30 = load i32, i32* %2, align 4
  %31 = sext i32 %30 to i64
  %32 = getelementptr inbounds [300 x i32], [300 x i32]* %4, i64 0, i64 %31
  %33 = load i32, i32* %32, align 4
  %34 = icmp slt i32 %29, %33
  br i1 %34, label %35, label %41

35:                                               ; preds = %28
  %36 = load i32, i32* %5, align 4
  store i32 %36, i32* %6, align 4
  %37 = load i32, i32* %2, align 4
  %38 = sext i32 %37 to i64
  %39 = getelementptr inbounds [300 x i32], [300 x i32]* %4, i64 0, i64 %38
  %40 = load i32, i32* %39, align 4
  store i32 %40, i32* %5, align 4
  br label %61

41:                                               ; preds = %28
  %42 = load i32, i32* %6, align 4
  %43 = load i32, i32* %2, align 4
  %44 = sext i32 %43 to i64
  %45 = getelementptr inbounds [300 x i32], [300 x i32]* %4, i64 0, i64 %44
  %46 = load i32, i32* %45, align 4
  %47 = icmp slt i32 %42, %46
  br i1 %47, label %48, label %60

48:                                               ; preds = %41
  %49 = load i32, i32* %2, align 4
  %50 = sext i32 %49 to i64
  %51 = getelementptr inbounds [300 x i32], [300 x i32]* %4, i64 0, i64 %50
  %52 = load i32, i32* %51, align 4
  %53 = load i32, i32* %5, align 4
  %54 = icmp ne i32 %52, %53
  br i1 %54, label %55, label %60

55:                                               ; preds = %48
  %56 = load i32, i32* %2, align 4
  %57 = sext i32 %56 to i64
  %58 = getelementptr inbounds [300 x i32], [300 x i32]* %4, i64 0, i64 %57
  %59 = load i32, i32* %58, align 4
  store i32 %59, i32* %6, align 4
  br label %60

60:                                               ; preds = %55, %48, %41
  br label %61

61:                                               ; preds = %60, %35
  br label %62

62:                                               ; preds = %61
  %63 = load i32, i32* %2, align 4
  %64 = add nsw i32 %63, 1
  store i32 %64, i32* %2, align 4
  br label %24

65:                                               ; preds = %24
  %66 = load i32, i32* %3, align 4
  %67 = icmp eq i32 %66, 1
  br i1 %67, label %68, label %70

68:                                               ; preds = %65
  %69 = call i32 (i8*, ...) @printf(i8* getelementptr inbounds ([3 x i8], [3 x i8]* @.str.2, i64 0, i64 0))
  br label %79

70:                                               ; preds = %65
  %71 = load i32, i32* %6, align 4
  %72 = icmp ne i32 %71, 0
  br i1 %72, label %73, label %76

73:                                               ; preds = %70
  %74 = load i32, i32* %6, align 4
  %75 = call i32 (i8*, ...) @printf(i8* getelementptr inbounds ([3 x i8], [3 x i8]* @.str, i64 0, i64 0), i32 %74)
  br label %78

76:                                               ; preds = %70
  %77 = call i32 (i8*, ...) @printf(i8* getelementptr inbounds ([3 x i8], [3 x i8]* @.str.2, i64 0, i64 0))
  br label %78

78:                                               ; preds = %76, %73
  br label %79

79:                                               ; preds = %78, %68
  %80 = load i32, i32* %1, align 4
  ret i32 %80
}

declare dso_local i32 @__isoc99_scanf(i8*, ...) #1

declare dso_local i32 @printf(i8*, ...) #1


!llvm.module.flags = !{!0}
!llvm.ident = !{!1}

!0 = !{i32 1, !"wchar_size", i32 4}
!1 = !{!"clang version 10.0.0-4ubuntu1 "}
